; Function Attrs: nofree norecurse nosync nounwind memory(argmem: readwrite) uwtable
define void @ff_simple_idct84_add(ptr noundef captures(none) %0, i64 noundef %1, ptr noundef captures(none) %2) local_unnamed_addr #4 {
  br label %4

4:                                                ; preds = %3, %4
  %indvars.iv = phi i64 [ 0, %3 ], [ %indvars.iv.next, %4 ]
  %.idx = shl nuw nsw i64 %indvars.iv, 4
  %5 = getelementptr inbounds nuw i8, ptr %2, i64 %.idx
  tail call fastcc void @idctRowCondDC_int16_8bit(ptr noundef %5)
  %indvars.iv.next = add nuw nsw i64 %indvars.iv, 1
  %exitcond.not = icmp eq i64 %indvars.iv.next, 4
  br i1 %exitcond.not, label %.preheader, label %4, !llvm.loop !35

.preheader:                                       ; preds = %4, %.preheader
  %indvars.iv13 = phi i64 [ %indvars.iv.next14, %.preheader ], [ 0, %4 ]
  %6 = getelementptr inbounds nuw i8, ptr %0, i64 %indvars.iv13
  %7 = getelementptr inbounds nuw i16, ptr %2, i64 %indvars.iv13
  %8 = load i16, ptr %7, align 2, !tbaa !6
  %9 = sext i16 %8 to i32
  %10 = getelementptr inbounds nuw i8, ptr %7, i64 16
  %11 = load i16, ptr %10, align 2, !tbaa !6
  %12 = sext i16 %11 to i32
  %13 = getelementptr inbounds nuw i8, ptr %7, i64 32
  %14 = load i16, ptr %13, align 2, !tbaa !6
  %15 = sext i16 %14 to i32
  %16 = getelementptr inbounds nuw i8, ptr %7, i64 48
  %17 = load i16, ptr %16, align 2, !tbaa !6
  %18 = sext i16 %17 to i32
  %19 = add nsw i32 %15, %9
  %20 = mul nsw i32 %19, 2896
  %21 = add nsw i32 %20, 65536
  %22 = sub nsw i32 %9, %15
  %23 = mul nsw i32 %22, 2896
  %24 = add nsw i32 %23, 65536
  %25 = mul nsw i32 %12, 3784
  %26 = mul nsw i32 %18, 1567
  %27 = add nsw i32 %26, %25
  %28 = mul nsw i32 %12, 1567
  %.neg.i = mul nsw i32 %18, -3784
  %29 = add nsw i32 %.neg.i, %28
  %30 = load i8, ptr %6, align 1, !tbaa !10
  %31 = zext i8 %30 to i32
  %32 = add nsw i32 %21, %27
  %33 = ashr i32 %32, 17
  %34 = add nsw i32 %33, %31
  %.not.i.i = icmp ult i32 %34, 256
  %isnotneg.i.i = icmp sgt i32 %34, -1
  %35 = sext i1 %isnotneg.i.i to i8
  %36 = trunc nuw i32 %34 to i8
  %.0.i.i = select i1 %.not.i.i, i8 %36, i8 %35
  store i8 %.0.i.i, ptr %6, align 1, !tbaa !10
  %37 = getelementptr inbounds i8, ptr %6, i64 %1
  %38 = load i8, ptr %37, align 1, !tbaa !10
  %39 = zext i8 %38 to i32
  %40 = add nsw i32 %24, %29
  %41 = ashr i32 %40, 17
  %42 = add nsw i32 %41, %39
  %.not.i33.i = icmp ult i32 %42, 256
  %isnotneg.i34.i = icmp sgt i32 %42, -1
  %43 = sext i1 %isnotneg.i34.i to i8
  %44 = trunc nuw i32 %42 to i8
  %.0.i35.i = select i1 %.not.i33.i, i8 %44, i8 %43
  store i8 %.0.i35.i, ptr %37, align 1, !tbaa !10
  %45 = getelementptr inbounds i8, ptr %37, i64 %1
  %46 = load i8, ptr %45, align 1, !tbaa !10
  %47 = zext i8 %46 to i32
  %48 = sub nsw i32 %24, %29
  %49 = ashr i32 %48, 17
  %50 = add nsw i32 %49, %47
  %.not.i36.i = icmp ult i32 %50, 256
  %isnotneg.i37.i = icmp sgt i32 %50, -1
  %51 = sext i1 %isnotneg.i37.i to i8
  %52 = trunc nuw i32 %50 to i8
  %.0.i38.i = select i1 %.not.i36.i, i8 %52, i8 %51
  store i8 %.0.i38.i, ptr %45, align 1, !tbaa !10
  %53 = getelementptr inbounds i8, ptr %45, i64 %1
  %54 = load i8, ptr %53, align 1, !tbaa !10
  %55 = zext i8 %54 to i32
  %56 = sub nsw i32 %21, %27
  %57 = ashr i32 %56, 17
  %58 = add nsw i32 %57, %55
  %.not.i39.i = icmp ult i32 %58, 256
  %isnotneg.i40.i = icmp sgt i32 %58, -1
  %59 = sext i1 %isnotneg.i40.i to i8
  %60 = trunc nuw i32 %58 to i8
  %.0.i41.i = select i1 %.not.i39.i, i8 %60, i8 %59
  store i8 %.0.i41.i, ptr %53, align 1, !tbaa !10
  %indvars.iv.next14 = add nuw nsw i64 %indvars.iv13, 1
  %exitcond16.not = icmp eq i64 %indvars.iv.next14, 8
  br i1 %exitcond16.not, label %61, label %.preheader, !llvm.loop !36

61:                                               ; preds = %.preheader
  ret void
}